target datalayout = "e-m:e-p270:32:32-p271:32:32-p272:64:64-i64:64-i128:128-f80:128-n8:16:32:64-S128"
target triple = "x86_64-pc-linux-gnu"

%struct.Intp_Man_t_ = type { ptr, i32, i32, i32, i32, i32, i32, i32, ptr, ptr, ptr, ptr, ptr, ptr, i32, i32, ptr, ptr, ptr, i32, i32, i64, i64, i64 }
%struct.Vec_Ptr_t_ = type { i32, i32, ptr }

; Function Attrs: nounwind uwtable
define internal ptr @Vec_PtrAlloc(i32 noundef %0) #0 {
  %2 = alloca i32, align 4
  %3 = alloca ptr, align 8
  store i32 %0, ptr %2, align 4
  %4 = call noalias ptr @malloc(i64 noundef 16) #9
  store ptr %4, ptr %3, align 8
  %5 = load i32, ptr %2, align 4
  %6 = icmp sgt i32 %5, 0
  br i1 %6, label %7, label %11

7:                                                ; preds = %1
  %8 = load i32, ptr %2, align 4
  %9 = icmp slt i32 %8, 8
  br i1 %9, label %10, label %11

10:                                               ; preds = %7
  store i32 8, ptr %2, align 4
  br label %11

11:                                               ; preds = %10, %7, %1
  %12 = load ptr, ptr %3, align 8
  %13 = getelementptr inbounds %struct.Vec_Ptr_t_, ptr %12, i32 0, i32 1
  store i32 0, ptr %13, align 4
  %14 = load i32, ptr %2, align 4
  %15 = load ptr, ptr %3, align 8
  %16 = getelementptr inbounds %struct.Vec_Ptr_t_, ptr %15, i32 0, i32 0
  store i32 %14, ptr %16, align 8
  %17 = load ptr, ptr %3, align 8
  %18 = getelementptr inbounds %struct.Vec_Ptr_t_, ptr %17, i32 0, i32 0
  %19 = load i32, ptr %18, align 8
  %20 = icmp ne i32 %19, 0
  br i1 %20, label %21, label %28

21:                                               ; preds = %11
  %22 = load ptr, ptr %3, align 8
  %23 = getelementptr inbounds %struct.Vec_Ptr_t_, ptr %22, i32 0, i32 0
  %24 = load i32, ptr %23, align 8
  %25 = sext i32 %24 to i64
  %26 = mul i64 8, %25
  %27 = call noalias ptr @malloc(i64 noundef %26) #9
  br label %29

28:                                               ; preds = %11
  br label %29

29:                                               ; preds = %28, %21
  %30 = phi ptr [ %27, %21 ], [ null, %28 ]
  %31 = load ptr, ptr %3, align 8
  %32 = getelementptr inbounds %struct.Vec_Ptr_t_, ptr %31, i32 0, i32 2
  store ptr %30, ptr %32, align 8
  %33 = load ptr, ptr %3, align 8
  ret ptr %33
}

; Function Attrs: nounwind uwtable
define ptr @Intp_ManAlloc() #0 {
  %1 = alloca ptr, align 8
  %2 = call noalias ptr @malloc(i64 noundef 152) #9
  store ptr %2, ptr %1, align 8
  %3 = load ptr, ptr %1, align 8
  call void @llvm.memset.p0.i64(ptr align 8 %3, i8 0, i64 152, i1 false)
  %4 = load ptr, ptr %1, align 8
  %5 = getelementptr inbounds %struct.Intp_Man_t_, ptr %4, i32 0, i32 20
  store i32 65536, ptr %5, align 4
  %6 = load ptr, ptr %1, align 8
  %7 = getelementptr inbounds %struct.Intp_Man_t_, ptr %6, i32 0, i32 20
  %8 = load i32, ptr %7, align 4
  %9 = sext i32 %8 to i64
  %10 = mul i64 4, %9
  %11 = call noalias ptr @malloc(i64 noundef %10) #9
  %12 = load ptr, ptr %1, align 8
  %13 = getelementptr inbounds %struct.Intp_Man_t_, ptr %12, i32 0, i32 18
  store ptr %11, ptr %13, align 8
  %14 = call ptr @Vec_PtrAlloc(i32 noundef 1000)
  %15 = load ptr, ptr %1, align 8
  %16 = getelementptr inbounds %struct.Intp_Man_t_, ptr %15, i32 0, i32 13
  store ptr %14, ptr %16, align 8
  %17 = load ptr, ptr %1, align 8
  %18 = getelementptr inbounds %struct.Intp_Man_t_, ptr %17, i32 0, i32 14
  store i32 0, ptr %18, align 8
  %19 = load ptr, ptr %1, align 8
  %20 = getelementptr inbounds %struct.Intp_Man_t_, ptr %19, i32 0, i32 3
  store i32 0, ptr %20, align 8
  %21 = load ptr, ptr %1, align 8
  %22 = getelementptr inbounds %struct.Intp_Man_t_, ptr %21, i32 0, i32 2
  store i32 1, ptr %22, align 4
  %23 = load ptr, ptr %1, align 8
  ret ptr %23
}