; Function Attrs: mustprogress nofree nounwind willreturn memory(write, argmem: none, inaccessiblemem: readwrite) uwtable
define noalias noundef ptr @Intp_ManAlloc() local_unnamed_addr #0 {
  %calloc = tail call dereferenceable_or_null(152) ptr @calloc(i64 1, i64 152)
  %1 = getelementptr inbounds nuw i8, ptr %calloc, i64 124
  store i32 65536, ptr %1, align 4
  %2 = tail call noalias dereferenceable_or_null(262144) ptr @malloc(i64 noundef 262144) #14
  %3 = getelementptr inbounds nuw i8, ptr %calloc, i64 112
  store ptr %2, ptr %3, align 8
  %4 = tail call noalias dereferenceable_or_null(16) ptr @malloc(i64 noundef 16) #14
  %5 = getelementptr inbounds nuw i8, ptr %4, i64 4
  store i32 0, ptr %5, align 4
  store i32 1000, ptr %4, align 8
  %6 = tail call noalias dereferenceable_or_null(8000) ptr @malloc(i64 noundef 8000) #14
  %7 = getelementptr inbounds nuw i8, ptr %4, i64 8
  store ptr %6, ptr %7, align 8
  %8 = getelementptr inbounds nuw i8, ptr %calloc, i64 80
  store ptr %4, ptr %8, align 8
  %9 = getelementptr inbounds nuw i8, ptr %calloc, i64 12
  store i32 1, ptr %9, align 4
  ret ptr %calloc
}